; Function Attrs: mustprogress nounwind uwtable
define dso_local void @_ZN4llvm10sampleprof32SampleProfileWriterExtBinaryBase20setToCompressSectionENS0_7SecTypeE(ptr noundef nonnull align 8 dereferenceable(576) %0, i32 noundef %1) local_unnamed_addr #2 align 2 {
  %3 = getelementptr inbounds nuw i8, ptr %0, i64 88
  %4 = load ptr, ptr %3, align 8
  %5 = tail call noundef i64 @_ZNK4llvm15SmallVectorBaseIjE4sizeEv(ptr noundef nonnull align 8 dereferenceable(16) %3) #22
  %6 = getelementptr inbounds %"struct.llvm::sampleprof::SecHdrTableEntry", ptr %4, i64 %5
  %.not10.i = icmp eq i64 %5, 0
  br i1 %.not10.i, label %_ZN4llvm10sampleprof32SampleProfileWriterExtBinaryBase14addSectionFlagINS0_14SecCommonFlagsEEEvNS0_7SecTypeET_.exit, label %.lr.ph.i

.lr.ph.i:                                         ; preds = %2, %13
  %.011.i = phi ptr [ %14, %13 ], [ %4, %2 ]
  %7 = load i32, ptr %.011.i, align 8
  %8 = icmp eq i32 %7, %1
  br i1 %8, label %9, label %13

9:                                                ; preds = %.lr.ph.i
  %10 = getelementptr inbounds nuw i8, ptr %.011.i, i64 8
  %11 = load i64, ptr %10, align 8
  %12 = or i64 %11, 1
  store i64 %12, ptr %10, align 8
  br label %13

13:                                               ; preds = %9, %.lr.ph.i
  %14 = getelementptr inbounds i8, ptr %.011.i, i64 40
  %.not.i = icmp eq ptr %14, %6
  br i1 %.not.i, label %_ZN4llvm10sampleprof32SampleProfileWriterExtBinaryBase14addSectionFlagINS0_14SecCommonFlagsEEEvNS0_7SecTypeET_.exit, label %.lr.ph.i

_ZN4llvm10sampleprof32SampleProfileWriterExtBinaryBase14addSectionFlagINS0_14SecCommonFlagsEEEvNS0_7SecTypeET_.exit: ; preds = %13, %2
  ret void
}